; Function Attrs: nounwind uwtable
define internal range(i32 0, 2) i32 @check_stream_9(ptr noundef readonly captures(none) %0) #0 {
  %2 = getelementptr inbounds nuw i8, ptr %0, i64 1152
  %3 = load ptr, ptr %2, align 8, !tbaa !64
  %4 = getelementptr inbounds nuw i8, ptr %0, i64 1144
  %5 = load i64, ptr %4, align 8, !tbaa !64
  %6 = tail call i32 @test_mem_eq(ptr noundef nonnull @.str.2, i32 noundef 642, ptr noundef nonnull @.str.132, ptr noundef nonnull @.str.133, ptr noundef %3, i64 noundef %5, ptr noundef nonnull @stream_9, i64 noundef 8) #8
  %.not = icmp ne i32 %6, 0
  %. = zext i1 %.not to i32
  ret i32 %.
}